target datalayout = "e-m:e-p270:32:32-p271:32:32-p272:64:64-i64:64-i128:128-f80:128-n8:16:32:64-S128"
target triple = "x86_64-pc-linux-gnu"

%struct.Vec_Int_t_ = type { i32, i32, ptr }

; Function Attrs: inlinehint nounwind uwtable
define internal i32 @Vec_IntSize(ptr noundef %0) #7 {
  %2 = alloca ptr, align 8
  store ptr %0, ptr %2, align 8, !tbaa !26
  %3 = load ptr, ptr %2, align 8, !tbaa !26
  %4 = getelementptr inbounds nuw %struct.Vec_Int_t_, ptr %3, i32 0, i32 1
  %5 = load i32, ptr %4, align 4, !tbaa !28
  ret i32 %5
}

; Function Attrs: nounwind uwtable
define ptr @Kit_TruthToGraph(ptr noundef %0, i32 noundef %1, ptr noundef %2) #0 {
  %4 = alloca ptr, align 8
  %5 = alloca ptr, align 8
  %6 = alloca i32, align 4
  %7 = alloca ptr, align 8
  %8 = alloca ptr, align 8
  %9 = alloca i32, align 4
  %10 = alloca i32, align 4
  store ptr %0, ptr %5, align 8, !tbaa !24
  store i32 %1, ptr %6, align 4, !tbaa !3
  store ptr %2, ptr %7, align 8, !tbaa !26
  call void @llvm.lifetime.start.p0(i64 8, ptr %8) #13
  call void @llvm.lifetime.start.p0(i64 4, ptr %9) #13
  %11 = load ptr, ptr %5, align 8, !tbaa !24
  %12 = load i32, ptr %6, align 4, !tbaa !3
  %13 = load ptr, ptr %7, align 8, !tbaa !26
  %14 = call i32 @Kit_TruthIsop(ptr noundef %11, i32 noundef %12, ptr noundef %13, i32 noundef 1)
  store i32 %14, ptr %9, align 4, !tbaa !3
  %15 = load i32, ptr %9, align 4, !tbaa !3
  %16 = icmp eq i32 %15, -1
  br i1 %16, label %17, label %18

17:                                               ; preds = %3
  store ptr null, ptr %4, align 8
  store i32 1, ptr %10, align 4
  br label %30

18:                                               ; preds = %3
  %19 = load ptr, ptr %7, align 8, !tbaa !26
  %20 = call i32 @Vec_IntSize(ptr noundef %19)
  %21 = icmp sgt i32 %20, 65536
  br i1 %21, label %22, label %23

22:                                               ; preds = %18
  store ptr null, ptr %4, align 8
  store i32 1, ptr %10, align 4
  br label %30

23:                                               ; preds = %18
  %24 = load ptr, ptr %7, align 8, !tbaa !26
  %25 = load i32, ptr %9, align 4, !tbaa !3
  %26 = load i32, ptr %6, align 4, !tbaa !3
  %27 = load ptr, ptr %7, align 8, !tbaa !26
  %28 = call ptr @Kit_SopFactor(ptr noundef %24, i32 noundef %25, i32 noundef %26, ptr noundef %27)
  store ptr %28, ptr %8, align 8, !tbaa !7
  %29 = load ptr, ptr %8, align 8, !tbaa !7
  store ptr %29, ptr %4, align 8
  store i32 1, ptr %10, align 4
  br label %30

30:                                               ; preds = %23, %22, %17
  call void @llvm.lifetime.end.p0(i64 4, ptr %9) #13
  call void @llvm.lifetime.end.p0(i64 8, ptr %8) #13
  %31 = load ptr, ptr %4, align 8
  ret ptr %31
}