; Function Attrs: nounwind uwtable
define ptr @Kit_TruthToGraph(ptr noundef %0, i32 noundef %1, ptr noundef %2) local_unnamed_addr #8 {
  %4 = tail call i32 @Kit_TruthIsop(ptr noundef %0, i32 noundef %1, ptr noundef %2, i32 noundef 1) #21
  %5 = icmp eq i32 %4, -1
  br i1 %5, label %11, label %6

6:                                                ; preds = %3
  %7 = getelementptr i8, ptr %2, i64 4
  %.val = load i32, ptr %7, align 4, !tbaa !20
  %8 = icmp sgt i32 %.val, 65536
  br i1 %8, label %11, label %9

9:                                                ; preds = %6
  %10 = tail call ptr @Kit_SopFactor(ptr noundef nonnull %2, i32 noundef %4, i32 noundef %1, ptr noundef nonnull %2) #21
  br label %11

11:                                               ; preds = %6, %3, %9
  %.0 = phi ptr [ %10, %9 ], [ null, %3 ], [ null, %6 ]
  ret ptr %.0
}